target datalayout = "e-m:e-p270:32:32-p271:32:32-p272:64:64-i64:64-i128:128-f80:128-n8:16:32:64-S128"
target triple = "x86_64-pc-linux-gnu"

%struct.PJ_LP = type { double, double }
%struct.PJ_XY = type { double, double }

; Function Attrs: mustprogress nounwind uwtable
define internal { double, double } @_ZL19natearth2_s_forward5PJ_LPP8PJconsts(double %0, double %1, ptr noundef %2) #1 {
  %4 = alloca %struct.PJ_XY, align 8
  %5 = alloca %struct.PJ_LP, align 8
  %6 = alloca ptr, align 8
  %7 = alloca double, align 8
  %8 = alloca double, align 8
  %9 = alloca double, align 8
  %10 = getelementptr inbounds nuw { double, double }, ptr %5, i32 0, i32 0
  store double %0, ptr %10, align 8
  %11 = getelementptr inbounds nuw { double, double }, ptr %5, i32 0, i32 1
  store double %1, ptr %11, align 8
  store ptr %2, ptr %6, align 8, !tbaa !3
  call void @llvm.memset.p0.i64(ptr align 8 %4, i8 0, i64 16, i1 false)
  call void @llvm.lifetime.start.p0(i64 8, ptr %7) #6
  call void @llvm.lifetime.start.p0(i64 8, ptr %8) #6
  call void @llvm.lifetime.start.p0(i64 8, ptr %9) #6
  %12 = getelementptr inbounds nuw %struct.PJ_LP, ptr %5, i32 0, i32 1
  %13 = load double, ptr %12, align 8, !tbaa !51
  %14 = getelementptr inbounds nuw %struct.PJ_LP, ptr %5, i32 0, i32 1
  %15 = load double, ptr %14, align 8, !tbaa !51
  %16 = fmul double %13, %15
  store double %16, ptr %7, align 8, !tbaa !46
  %17 = load double, ptr %7, align 8, !tbaa !46
  %18 = load double, ptr %7, align 8, !tbaa !46
  %19 = fmul double %17, %18
  store double %19, ptr %8, align 8, !tbaa !46
  %20 = load double, ptr %7, align 8, !tbaa !46
  %21 = load double, ptr %8, align 8, !tbaa !46
  %22 = fmul double %20, %21
  store double %22, ptr %9, align 8, !tbaa !46
  %23 = getelementptr inbounds nuw %struct.PJ_LP, ptr %5, i32 0, i32 0
  %24 = load double, ptr %23, align 8, !tbaa !54
  %25 = load double, ptr %7, align 8, !tbaa !46
  %26 = call double @llvm.fmuladd.f64(double -1.306300e-01, double %25, double 8.471900e-01)
  %27 = load double, ptr %9, align 8, !tbaa !46
  %28 = load double, ptr %9, align 8, !tbaa !46
  %29 = fmul double %27, %28
  %30 = load double, ptr %7, align 8, !tbaa !46
  %31 = call double @llvm.fmuladd.f64(double 5.494000e-02, double %30, double -4.515000e-02)
  %32 = load double, ptr %8, align 8, !tbaa !46
  %33 = call double @llvm.fmuladd.f64(double -2.326000e-02, double %32, double %31)
  %34 = load double, ptr %9, align 8, !tbaa !46
  %35 = call double @llvm.fmuladd.f64(double 3.310000e-03, double %34, double %33)
  %36 = call double @llvm.fmuladd.f64(double %29, double %35, double %26)
  %37 = fmul double %24, %36
  %38 = getelementptr inbounds nuw %struct.PJ_XY, ptr %4, i32 0, i32 0
  store double %37, ptr %38, align 8, !tbaa !53
  %39 = getelementptr inbounds nuw %struct.PJ_LP, ptr %5, i32 0, i32 1
  %40 = load double, ptr %39, align 8, !tbaa !51
  %41 = load double, ptr %8, align 8, !tbaa !46
  %42 = load double, ptr %8, align 8, !tbaa !46
  %43 = fmul double %41, %42
  %44 = load double, ptr %7, align 8, !tbaa !46
  %45 = call double @llvm.fmuladd.f64(double 1.926000e-02, double %44, double -2.625000e-02)
  %46 = load double, ptr %8, align 8, !tbaa !46
  %47 = call double @llvm.fmuladd.f64(double -3.960000e-03, double %46, double %45)
  %48 = call double @llvm.fmuladd.f64(double %43, double %47, double 1.011830e+00)
  %49 = fmul double %40, %48
  %50 = getelementptr inbounds nuw %struct.PJ_XY, ptr %4, i32 0, i32 1
  store double %49, ptr %50, align 8, !tbaa !44
  call void @llvm.lifetime.end.p0(i64 8, ptr %9) #6
  call void @llvm.lifetime.end.p0(i64 8, ptr %8) #6
  call void @llvm.lifetime.end.p0(i64 8, ptr %7) #6
  %51 = load { double, double }, ptr %4, align 8
  ret { double, double } %51
}